; Function Attrs: nounwind uwtable
define ptr @SSL_get_rbio(ptr noundef %0) local_unnamed_addr #0 {
  %2 = icmp eq ptr %0, null
  br i1 %2, label %.thread16, label %3

3:                                                ; preds = %1
  %4 = load i32, ptr %0, align 8, !tbaa !19
  %5 = icmp eq i32 %4, 0
  br i1 %5, label %.thread20, label %6

6:                                                ; preds = %3
  %7 = and i32 %4, 128
  %.not = icmp eq i32 %7, 0
  br i1 %.not, label %10, label %8

8:                                                ; preds = %6
  %9 = tail call ptr @ossl_quic_obj_get0_handshake_layer(ptr noundef nonnull %0) #20
  %.pre = load i32, ptr %0, align 8, !tbaa !19
  br label %10

10:                                               ; preds = %6, %8
  %11 = phi i32 [ %4, %6 ], [ %.pre, %8 ]
  %.ph = phi ptr [ null, %6 ], [ %9, %8 ]
  %12 = and i32 %11, 128
  %.not15 = icmp eq i32 %12, 0
  br i1 %.not15, label %15, label %13

13:                                               ; preds = %10
  %14 = tail call ptr @ossl_quic_conn_get_net_rbio(ptr noundef nonnull %0) #20
  br label %.thread16

15:                                               ; preds = %10
  %16 = icmp eq ptr %.ph, null
  br i1 %16, label %.thread16, label %.thread20

.thread20:                                        ; preds = %3, %15
  %.ph1922 = phi ptr [ %.ph, %15 ], [ %0, %3 ]
  %17 = getelementptr inbounds nuw i8, ptr %.ph1922, i64 80
  %18 = load ptr, ptr %17, align 8, !tbaa !360
  br label %.thread16

.thread16:                                        ; preds = %1, %15, %.thread20, %13
  %.0 = phi ptr [ %14, %13 ], [ %18, %.thread20 ], [ null, %15 ], [ null, %1 ]
  ret ptr %.0
}